target datalayout = "e-m:e-p270:32:32-p271:32:32-p272:64:64-i64:64-i128:128-f80:128-n8:16:32:64-S128"
target triple = "x86_64-pc-linux-gnu"

%struct._address = type { i32, i32, ptr, ptr }
%struct.nstime_t = type { i64, i32 }
%struct._packet_info = type { ptr, ptr, i32, i32, %struct.nstime_t, %struct.nstime_t, %struct.nstime_t, i8, ptr, ptr, ptr, ptr, %struct._address, %struct._address, %struct._address, %struct._address, %struct._address, %struct._address, i32, ptr, i8, [3 x i8], %struct.anon.0, i32, i32, i32, i32, ptr, i8, ptr, ptr, i16, i16, i32, i32, i16, i32, i32, ptr, ptr, ptr, i8, i8, i16, i16, i16, i32, i16, i16, ptr, ptr, ptr, ptr, ptr, i32, i32 }
%struct.anon.0 = type { i8, [3 x i8] }
%struct._dcerpc_decode_as_data = type { i16, i32, i64 }

@proto_dcerpc = internal global i32 0, align 4
@dcerpc_cn_desegment = internal global i8 1, align 1

; Function Attrs: null_pointer_is_valid sspstrong uwtable
define internal ptr @dcerpc_get_decode_data(ptr noundef %0) #0 {
  %2 = alloca ptr, align 8
  %3 = alloca ptr, align 8
  store ptr %0, ptr %2, align 8
  call void @llvm.lifetime.start.p0(i64 8, ptr %3) #19
  %4 = load ptr, ptr %2, align 8
  %5 = getelementptr inbounds nuw %struct._packet_info, ptr %4, i32 0, i32 51
  %6 = load ptr, ptr %5, align 8
  %7 = load ptr, ptr %2, align 8
  %8 = load i32, ptr @proto_dcerpc, align 4
  %9 = call ptr @p_get_proto_data(ptr noundef %6, ptr noundef %7, i32 noundef %8, i32 noundef 0)
  store ptr %9, ptr %3, align 8
  %10 = load ptr, ptr %3, align 8
  %11 = icmp eq ptr %10, null
  br i1 %11, label %12, label %25

12:                                               ; preds = %1
  %13 = load ptr, ptr %2, align 8
  %14 = getelementptr inbounds nuw %struct._packet_info, ptr %13, i32 0, i32 51
  %15 = load ptr, ptr %14, align 8
  %16 = call noalias ptr @wmem_alloc0(ptr noundef %15, i64 noundef 16) #22
  store ptr %16, ptr %3, align 8
  %17 = load ptr, ptr %3, align 8
  %18 = getelementptr inbounds nuw %struct._dcerpc_decode_as_data, ptr %17, i32 0, i32 1
  store i32 -1, ptr %18, align 4
  %19 = load ptr, ptr %2, align 8
  %20 = getelementptr inbounds nuw %struct._packet_info, ptr %19, i32 0, i32 51
  %21 = load ptr, ptr %20, align 8
  %22 = load ptr, ptr %2, align 8
  %23 = load i32, ptr @proto_dcerpc, align 4
  %24 = load ptr, ptr %3, align 8
  call void @p_add_proto_data(ptr noundef %21, ptr noundef %22, i32 noundef %23, i32 noundef 0, ptr noundef %24)
  br label %25

25:                                               ; preds = %12, %1
  %26 = load ptr, ptr %3, align 8
  call void @llvm.lifetime.end.p0(i64 8, ptr %3) #19
  ret ptr %26
}

; Function Attrs: null_pointer_is_valid sspstrong uwtable
define internal i32 @dissect_dcerpc_tcp(ptr noundef %0, ptr noundef %1, ptr noundef %2, ptr noundef %3) #0 {
  %5 = alloca ptr, align 8
  %6 = alloca ptr, align 8
  %7 = alloca ptr, align 8
  %8 = alloca ptr, align 8
  %9 = alloca ptr, align 8
  store ptr %0, ptr %5, align 8
  store ptr %1, ptr %6, align 8
  store ptr %2, ptr %7, align 8
  store ptr %3, ptr %8, align 8
  call void @llvm.lifetime.start.p0(i64 8, ptr %9) #19
  %10 = load ptr, ptr %6, align 8
  %11 = call ptr @dcerpc_get_decode_data(ptr noundef %10)
  store ptr %11, ptr %9, align 8
  %12 = load ptr, ptr %9, align 8
  %13 = getelementptr inbounds nuw %struct._dcerpc_decode_as_data, ptr %12, i32 0, i32 1
  store i32 0, ptr %13, align 4
  %14 = load ptr, ptr %5, align 8
  %15 = load ptr, ptr %6, align 8
  %16 = load ptr, ptr %7, align 8
  %17 = load i8, ptr @dcerpc_cn_desegment, align 1, !range !11, !noundef !12
  %18 = trunc i8 %17 to i1
  %19 = load ptr, ptr %8, align 8
  call void @tcp_dissect_pdus(ptr noundef %14, ptr noundef %15, ptr noundef %16, i1 noundef zeroext %18, i32 noundef 16, ptr noundef @get_dcerpc_pdu_len, ptr noundef @dissect_dcerpc_pdu, ptr noundef %19)
  %20 = load ptr, ptr %5, align 8
  %21 = call i32 @tvb_captured_length(ptr noundef %20)
  call void @llvm.lifetime.end.p0(i64 8, ptr %9) #19
  ret i32 %21
}